target datalayout = "e-m:e-p270:32:32-p271:32:32-p272:64:64-i64:64-i128:128-f80:128-n8:16:32:64-S128"
target triple = "x86_64-pc-linux-gnu"

%"class.llvm::PointerIntPair" = type { %"struct.llvm::detail::PunnedPointer" }
%"struct.llvm::detail::PunnedPointer" = type { [8 x i8] }
%"class.clang::CharUnits" = type { i64 }
%"class.clang::QualType" = type { %"class.llvm::PointerIntPair.44" }
%"class.llvm::PointerIntPair.44" = type { %"struct.llvm::detail::PunnedPointer.45" }
%"struct.llvm::detail::PunnedPointer.45" = type { [8 x i8] }
%"class.clang::SourceLocation" = type { i32 }
%"class.clang::CodeGen::Address" = type { %"class.llvm::PointerIntPair", ptr, %"class.clang::CharUnits", %"class.clang::CodeGen::CGPointerAuthInfo", ptr }
%"class.clang::CodeGen::CGPointerAuthInfo" = type { i8, ptr }
%"struct.std::pair.928" = type { ptr, ptr }
%"class.clang::CodeGen::AggValueSlot" = type <{ %"class.clang::CodeGen::Address", %"class.clang::Qualifiers", i8, [7 x i8] }>
%"class.clang::Qualifiers" = type { i64 }
%"class.clang::CodeGen::RValue" = type <{ %union.anon.930, i8, [7 x i8] }>
%union.anon.930 = type { %"class.clang::CodeGen::Address" }
%"class.clang::CodeGen::LValue" = type { i32, %union.anon.932, %union.anon.933, %"class.clang::QualType", %"class.clang::Qualifiers", i8, %"class.clang::CodeGen::LValueBaseInfo", %"struct.clang::CodeGen::TBAAAccessInfo", ptr }
%union.anon.932 = type { %"class.clang::CodeGen::Address" }
%union.anon.933 = type { ptr }
%"class.clang::CodeGen::LValueBaseInfo" = type { i32 }
%"struct.clang::CodeGen::TBAAAccessInfo" = type { i32, ptr, ptr, i64, i64 }
%struct.anon.931 = type { ptr, ptr }

; Function Attrs: mustprogress nounwind uwtable
define linkonce_odr hidden noundef ptr @_ZN4llvm21PointerLikeTypeTraitsIPNS_5ValueEE18getFromVoidPointerEPv(ptr noundef %0) #1 comdat align 2 {
  %2 = alloca ptr, align 8
  store ptr %0, ptr %2, align 8
  %3 = load ptr, ptr %2, align 8
  ret ptr %3
}

; Function Attrs: mustprogress nounwind uwtable
define linkonce_odr hidden noundef i64 @_ZNK4llvm6detail13PunnedPointerIPNS_5ValueEE5asIntEv(ptr noundef nonnull align 8 dereferenceable(8) %0) #1 comdat align 2 {
  %2 = alloca ptr, align 8
  %3 = alloca i64, align 8
  store ptr %0, ptr %2, align 8
  %4 = load ptr, ptr %2, align 8
  store i64 0, ptr %3, align 8
  %5 = getelementptr inbounds nuw %"struct.llvm::detail::PunnedPointer", ptr %4, i32 0, i32 0
  %6 = getelementptr inbounds [8 x i8], ptr %5, i64 0, i64 0
  call void @llvm.memcpy.p0.p0.i64(ptr align 8 %3, ptr align 8 %6, i64 8, i1 false)
  %7 = load i64, ptr %3, align 8
  ret i64 %7
}

; Function Attrs: mustprogress nounwind uwtable
define linkonce_odr hidden noundef ptr @_ZN4llvm18PointerIntPairInfoIPNS_5ValueELj1ENS_21PointerLikeTypeTraitsIS2_EEE10getPointerEl(i64 noundef %0) #1 comdat align 2 {
  %2 = alloca i64, align 8
  store i64 %0, ptr %2, align 8
  %3 = load i64, ptr %2, align 8
  %4 = and i64 %3, -8
  %5 = inttoptr i64 %4 to ptr
  %6 = call noundef ptr @_ZN4llvm21PointerLikeTypeTraitsIPNS_5ValueEE18getFromVoidPointerEPv(ptr noundef %5)
  ret ptr %6
}

; Function Attrs: mustprogress nounwind uwtable
define linkonce_odr hidden noundef i64 @_ZNK4llvm6detail13PunnedPointerIPNS_5ValueEEcvlEv(ptr noundef nonnull align 8 dereferenceable(8) %0) #1 comdat align 2 {
  %2 = alloca ptr, align 8
  store ptr %0, ptr %2, align 8
  %3 = load ptr, ptr %2, align 8
  %4 = call noundef i64 @_ZNK4llvm6detail13PunnedPointerIPNS_5ValueEE5asIntEv(ptr noundef nonnull align 8 dereferenceable(8) %3)
  ret i64 %4
}

; Function Attrs: mustprogress nounwind uwtable
define linkonce_odr hidden noundef ptr @_ZNK4llvm14PointerIntPairIPNS_5ValueELj1EbNS_21PointerLikeTypeTraitsIS2_EENS_18PointerIntPairInfoIS2_Lj1ES4_EEE10getPointerEv(ptr noundef nonnull align 8 dereferenceable(8) %0) #1 comdat align 2 {
  %2 = alloca ptr, align 8
  store ptr %0, ptr %2, align 8
  %3 = load ptr, ptr %2, align 8
  %4 = getelementptr inbounds nuw %"class.llvm::PointerIntPair", ptr %3, i32 0, i32 0
  %5 = call noundef i64 @_ZNK4llvm6detail13PunnedPointerIPNS_5ValueEEcvlEv(ptr noundef nonnull align 8 dereferenceable(8) %4)
  %6 = call noundef ptr @_ZN4llvm18PointerIntPairInfoIPNS_5ValueELj1ENS_21PointerLikeTypeTraitsIS2_EEE10getPointerEl(i64 noundef %5)
  ret ptr %6
}

; Function Attrs: mustprogress nounwind uwtable
define linkonce_odr hidden noundef zeroext i1 @_ZNK5clang10Qualifiers11hasVolatileEv(ptr noundef nonnull align 8 dereferenceable(8) %0) #1 comdat align 2 {
  %2 = alloca ptr, align 8
  store ptr %0, ptr %2, align 8
  %3 = load ptr, ptr %2, align 8
  %4 = getelementptr inbounds nuw %"class.clang::Qualifiers", ptr %3, i32 0, i32 0
  %5 = load i64, ptr %4, align 8
  %6 = and i64 %5, 4
  %7 = icmp ne i64 %6, 0
  ret i1 %7
}

; Function Attrs: mustprogress nounwind uwtable
define linkonce_odr hidden void @_ZN5clang7CodeGen6RValue3getEPN4llvm5ValueE(ptr dead_on_unwind noalias writable sret(%"class.clang::CodeGen::RValue") align 8 %0, ptr noundef %1) #1 comdat align 2 {
  %3 = alloca ptr, align 8
  store ptr %1, ptr %3, align 8
  call void @_ZN5clang7CodeGen6RValueC2Ev(ptr noundef nonnull align 8 dereferenceable(49) %0)
  %4 = load ptr, ptr %3, align 8
  %5 = getelementptr inbounds nuw %"class.clang::CodeGen::RValue", ptr %0, i32 0, i32 0
  %6 = getelementptr inbounds nuw %struct.anon.931, ptr %5, i32 0, i32 0
  store ptr %4, ptr %6, align 8
  %7 = getelementptr inbounds nuw %"class.clang::CodeGen::RValue", ptr %0, i32 0, i32 1
  %8 = load i8, ptr %7, align 8
  %9 = and i8 %8, -7
  %10 = or i8 %9, 0
  store i8 %10, ptr %7, align 8
  %11 = getelementptr inbounds nuw %"class.clang::CodeGen::RValue", ptr %0, i32 0, i32 1
  %12 = load i8, ptr %11, align 8
  %13 = and i8 %12, -2
  %14 = or i8 %13, 0
  store i8 %14, ptr %11, align 8
  ret void
}

; Function Attrs: mustprogress nounwind uwtable
define linkonce_odr hidden noundef zeroext i1 @_ZNK5clang7CodeGen7Address7isValidEv(ptr noundef nonnull align 8 dereferenceable(48) %0) #1 comdat align 2 {
  %2 = alloca ptr, align 8
  store ptr %0, ptr %2, align 8
  %3 = load ptr, ptr %2, align 8
  %4 = getelementptr inbounds nuw %"class.clang::CodeGen::Address", ptr %3, i32 0, i32 0
  %5 = call noundef ptr @_ZNK4llvm14PointerIntPairIPNS_5ValueELj1EbNS_21PointerLikeTypeTraitsIS2_EENS_18PointerIntPairInfoIS2_Lj1ES4_EEE10getPointerEv(ptr noundef nonnull align 8 dereferenceable(8) %4)
  %6 = icmp ne ptr %5, null
  ret i1 %6
}

; Function Attrs: mustprogress nounwind uwtable
define linkonce_odr hidden void @_ZN5clang7CodeGen6RValueC2Ev(ptr noundef nonnull align 8 dereferenceable(49) %0) unnamed_addr #1 comdat align 2 {
  %2 = alloca ptr, align 8
  store ptr %0, ptr %2, align 8
  %3 = load ptr, ptr %2, align 8
  %4 = getelementptr inbounds nuw %"class.clang::CodeGen::RValue", ptr %3, i32 0, i32 0
  %5 = getelementptr inbounds nuw %struct.anon.931, ptr %4, i32 0, i32 0
  store ptr null, ptr %5, align 8
  %6 = getelementptr inbounds nuw %struct.anon.931, ptr %4, i32 0, i32 1
  store ptr null, ptr %6, align 8
  %7 = getelementptr inbounds nuw %"class.clang::CodeGen::RValue", ptr %3, i32 0, i32 1
  %8 = load i8, ptr %7, align 8
  %9 = and i8 %8, -7
  %10 = or i8 %9, 0
  store i8 %10, ptr %7, align 8
  ret void
}

; Function Attrs: mustprogress nounwind uwtable
define linkonce_odr hidden void @_ZN5clang7CodeGen6RValue12getAggregateENS0_7AddressEb(ptr dead_on_unwind noalias writable sret(%"class.clang::CodeGen::RValue") align 8 %0, ptr noundef byval(%"class.clang::CodeGen::Address") align 8 %1, i1 noundef zeroext %2) #1 comdat align 2 {
  %4 = alloca i8, align 1
  %5 = zext i1 %2 to i8
  store i8 %5, ptr %4, align 1
  call void @_ZN5clang7CodeGen6RValueC2Ev(ptr noundef nonnull align 8 dereferenceable(49) %0)
  %6 = getelementptr inbounds nuw %"class.clang::CodeGen::RValue", ptr %0, i32 0, i32 0
  call void @llvm.memcpy.p0.p0.i64(ptr align 8 %6, ptr align 8 %1, i64 48, i1 false)
  %7 = getelementptr inbounds nuw %"class.clang::CodeGen::RValue", ptr %0, i32 0, i32 1
  %8 = load i8, ptr %7, align 8
  %9 = and i8 %8, -7
  %10 = or i8 %9, 4
  store i8 %10, ptr %7, align 8
  %11 = load i8, ptr %4, align 1
  %12 = trunc i8 %11 to i1
  %13 = zext i1 %12 to i32
  %14 = getelementptr inbounds nuw %"class.clang::CodeGen::RValue", ptr %0, i32 0, i32 1
  %15 = trunc i32 %13 to i8
  %16 = load i8, ptr %14, align 8
  %17 = and i8 %15, 1
  %18 = and i8 %16, -2
  %19 = or i8 %18, %17
  store i8 %19, ptr %14, align 8
  ret void
}

; Function Attrs: mustprogress nounwind uwtable
define linkonce_odr hidden noundef zeroext i1 @_ZNK5clang7CodeGen12AggValueSlot10isVolatileEv(ptr noundef nonnull align 8 dereferenceable(57) %0) #1 comdat align 2 {
  %2 = alloca ptr, align 8
  store ptr %0, ptr %2, align 8
  %3 = load ptr, ptr %2, align 8
  %4 = getelementptr inbounds nuw %"class.clang::CodeGen::AggValueSlot", ptr %3, i32 0, i32 1
  %5 = call noundef zeroext i1 @_ZNK5clang10Qualifiers11hasVolatileEv(ptr noundef nonnull align 8 dereferenceable(8) %4)
  ret i1 %5
}

; Function Attrs: mustprogress nounwind uwtable
define linkonce_odr hidden void @_ZNK5clang7CodeGen12AggValueSlot10getAddressEv(ptr dead_on_unwind noalias writable sret(%"class.clang::CodeGen::Address") align 8 %0, ptr noundef nonnull align 8 dereferenceable(57) %1) #1 comdat align 2 {
  %3 = alloca ptr, align 8
  store ptr %1, ptr %3, align 8
  %4 = load ptr, ptr %3, align 8
  %5 = getelementptr inbounds nuw %"class.clang::CodeGen::AggValueSlot", ptr %4, i32 0, i32 0
  call void @llvm.memcpy.p0.p0.i64(ptr align 8 %0, ptr align 8 %5, i64 48, i1 false)
  ret void
}

; Function Attrs: mustprogress nounwind uwtable
define linkonce_odr hidden void @_ZN5clang7CodeGen6RValue10getIgnoredEv(ptr dead_on_unwind noalias writable sret(%"class.clang::CodeGen::RValue") align 8 %0) #1 comdat align 2 {
  call void @_ZN5clang7CodeGen6RValue3getEPN4llvm5ValueE(ptr dead_on_unwind writable sret(%"class.clang::CodeGen::RValue") align 8 %0, ptr noundef null)
  ret void
}

; Function Attrs: mustprogress nounwind uwtable
define linkonce_odr hidden noundef zeroext i1 @_ZNK5clang7CodeGen12AggValueSlot9isIgnoredEv(ptr noundef nonnull align 8 dereferenceable(57) %0) #1 comdat align 2 {
  %2 = alloca ptr, align 8
  store ptr %0, ptr %2, align 8
  %3 = load ptr, ptr %2, align 8
  %4 = getelementptr inbounds nuw %"class.clang::CodeGen::AggValueSlot", ptr %3, i32 0, i32 0
  %5 = call noundef zeroext i1 @_ZNK5clang7CodeGen7Address7isValidEv(ptr noundef nonnull align 8 dereferenceable(48) %4)
  %6 = xor i1 %5, true
  ret i1 %6
}

; Function Attrs: mustprogress nounwind uwtable
define linkonce_odr hidden void @_ZN5clang7CodeGen6RValue10getComplexEPN4llvm5ValueES4_(ptr dead_on_unwind noalias writable sret(%"class.clang::CodeGen::RValue") align 8 %0, ptr noundef %1, ptr noundef %2) #1 comdat align 2 {
  %4 = alloca ptr, align 8
  %5 = alloca ptr, align 8
  %6 = alloca %struct.anon.931, align 8
  store ptr %1, ptr %4, align 8
  store ptr %2, ptr %5, align 8
  call void @_ZN5clang7CodeGen6RValueC2Ev(ptr noundef nonnull align 8 dereferenceable(49) %0)
  %7 = getelementptr inbounds nuw %struct.anon.931, ptr %6, i32 0, i32 0
  %8 = load ptr, ptr %4, align 8
  store ptr %8, ptr %7, align 8
  %9 = getelementptr inbounds nuw %struct.anon.931, ptr %6, i32 0, i32 1
  %10 = load ptr, ptr %5, align 8
  store ptr %10, ptr %9, align 8
  %11 = getelementptr inbounds nuw %"class.clang::CodeGen::RValue", ptr %0, i32 0, i32 0
  call void @llvm.memcpy.p0.p0.i64(ptr align 8 %11, ptr align 8 %6, i64 16, i1 false)
  %12 = getelementptr inbounds nuw %"class.clang::CodeGen::RValue", ptr %0, i32 0, i32 1
  %13 = load i8, ptr %12, align 8
  %14 = and i8 %13, -7
  %15 = or i8 %14, 2
  store i8 %15, ptr %12, align 8
  %16 = getelementptr inbounds nuw %"class.clang::CodeGen::RValue", ptr %0, i32 0, i32 1
  %17 = load i8, ptr %16, align 8
  %18 = and i8 %17, -2
  %19 = or i8 %18, 0
  store i8 %19, ptr %16, align 8
  ret void
}

; Function Attrs: mustprogress nounwind uwtable
define linkonce_odr hidden void @_ZNK5clang7CodeGen12AggValueSlot8asRValueEv(ptr dead_on_unwind noalias writable sret(%"class.clang::CodeGen::RValue") align 8 %0, ptr noundef nonnull align 8 dereferenceable(57) %1) #1 comdat align 2 {
  %3 = alloca ptr, align 8
  %4 = alloca %"class.clang::CodeGen::Address", align 8
  store ptr %1, ptr %3, align 8
  %5 = load ptr, ptr %3, align 8
  %6 = call noundef zeroext i1 @_ZNK5clang7CodeGen12AggValueSlot9isIgnoredEv(ptr noundef nonnull align 8 dereferenceable(57) %5)
  br i1 %6, label %7, label %8

7:                                                ; preds = %2
  call void @_ZN5clang7CodeGen6RValue10getIgnoredEv(ptr dead_on_unwind writable sret(%"class.clang::CodeGen::RValue") align 8 %0)
  br label %10

8:                                                ; preds = %2
  call void @_ZNK5clang7CodeGen12AggValueSlot10getAddressEv(ptr dead_on_unwind writable sret(%"class.clang::CodeGen::Address") align 8 %4, ptr noundef nonnull align 8 dereferenceable(57) %5)
  %9 = call noundef zeroext i1 @_ZNK5clang7CodeGen12AggValueSlot10isVolatileEv(ptr noundef nonnull align 8 dereferenceable(57) %5)
  call void @_ZN5clang7CodeGen6RValue12getAggregateENS0_7AddressEb(ptr dead_on_unwind writable sret(%"class.clang::CodeGen::RValue") align 8 %0, ptr noundef byval(%"class.clang::CodeGen::Address") align 8 %4, i1 noundef zeroext %9)
  br label %10

10:                                               ; preds = %8, %7
  ret void
}

; Function Attrs: mustprogress nounwind uwtable
define linkonce_odr hidden void @_ZN5clang7CodeGen6RValue10getComplexERKSt4pairIPN4llvm5ValueES5_E(ptr dead_on_unwind noalias writable sret(%"class.clang::CodeGen::RValue") align 8 %0, ptr noundef nonnull align 8 dereferenceable(16) %1) #1 comdat align 2 {
  %3 = alloca ptr, align 8
  store ptr %1, ptr %3, align 8
  %4 = load ptr, ptr %3, align 8
  %5 = getelementptr inbounds nuw %"struct.std::pair.928", ptr %4, i32 0, i32 0
  %6 = load ptr, ptr %5, align 8
  %7 = load ptr, ptr %3, align 8
  %8 = getelementptr inbounds nuw %"struct.std::pair.928", ptr %7, i32 0, i32 1
  %9 = load ptr, ptr %8, align 8
  call void @_ZN5clang7CodeGen6RValue10getComplexEPN4llvm5ValueES4_(ptr dead_on_unwind writable sret(%"class.clang::CodeGen::RValue") align 8 %0, ptr noundef %6, ptr noundef %9)
  ret void
}

; Function Attrs: mustprogress nounwind uwtable
define linkonce_odr hidden i64 @_ZNK5clang7CodeGen6LValue7getTypeEv(ptr noundef nonnull align 8 dereferenceable(136) %0) #1 comdat align 2 {
  %2 = alloca %"class.clang::QualType", align 8
  %3 = alloca ptr, align 8
  store ptr %0, ptr %3, align 8
  %4 = load ptr, ptr %3, align 8
  %5 = getelementptr inbounds nuw %"class.clang::CodeGen::LValue", ptr %4, i32 0, i32 3
  call void @llvm.memcpy.p0.p0.i64(ptr align 8 %2, ptr align 8 %5, i64 8, i1 false)
  %6 = getelementptr inbounds nuw %"class.clang::QualType", ptr %2, i32 0, i32 0
  %7 = getelementptr inbounds nuw %"class.llvm::PointerIntPair.44", ptr %6, i32 0, i32 0
  %8 = getelementptr inbounds nuw %"struct.llvm::detail::PunnedPointer.45", ptr %7, i32 0, i32 0
  %9 = load i64, ptr %8, align 8
  ret i64 %9
}

; Function Attrs: mustprogress nounwind uwtable
define dso_local void @_ZN5clang7CodeGen15CodeGenFunction18EmitLoadOfAnyValueENS0_6LValueENS0_12AggValueSlotENS_14SourceLocationE(ptr dead_on_unwind noalias writable sret(%"class.clang::CodeGen::RValue") align 8 %0, ptr noundef nonnull align 8 dereferenceable(6488) %1, ptr noundef byval(%"class.clang::CodeGen::LValue") align 8 %2, ptr noundef byval(%"class.clang::CodeGen::AggValueSlot") align 8 %3, i32 %4) #1 align 2 {
  %6 = alloca %"class.clang::SourceLocation", align 4
  %7 = alloca ptr, align 8
  %8 = alloca %"class.clang::QualType", align 8
  %9 = alloca %"class.clang::QualType", align 8
  %10 = alloca %"class.clang::CodeGen::LValue", align 8
  %11 = alloca %"class.clang::SourceLocation", align 4
  %12 = alloca %"struct.std::pair.928", align 8
  %13 = alloca %"class.clang::CodeGen::LValue", align 8
  %14 = alloca %"class.clang::SourceLocation", align 4
  %15 = alloca %"class.clang::QualType", align 8
  %16 = alloca %"class.clang::CodeGen::AggValueSlot", align 8
  %17 = getelementptr inbounds nuw %"class.clang::SourceLocation", ptr %6, i32 0, i32 0
  store i32 %4, ptr %17, align 4
  store ptr %1, ptr %7, align 8
  %18 = load ptr, ptr %7, align 8
  %19 = call i64 @_ZNK5clang7CodeGen6LValue7getTypeEv(ptr noundef nonnull align 8 dereferenceable(136) %2)
  %20 = getelementptr inbounds nuw %"class.clang::QualType", ptr %8, i32 0, i32 0
  %21 = getelementptr inbounds nuw %"class.llvm::PointerIntPair.44", ptr %20, i32 0, i32 0
  %22 = getelementptr inbounds nuw %"struct.llvm::detail::PunnedPointer.45", ptr %21, i32 0, i32 0
  store i64 %19, ptr %22, align 8
  call void @llvm.memcpy.p0.p0.i64(ptr align 8 %9, ptr align 8 %8, i64 8, i1 false)
  %23 = getelementptr inbounds nuw %"class.clang::QualType", ptr %9, i32 0, i32 0
  %24 = getelementptr inbounds nuw %"class.llvm::PointerIntPair.44", ptr %23, i32 0, i32 0
  %25 = getelementptr inbounds nuw %"struct.llvm::detail::PunnedPointer.45", ptr %24, i32 0, i32 0
  %26 = load i64, ptr %25, align 8
  %27 = call noundef i32 @_ZN5clang7CodeGen15CodeGenFunction17getEvaluationKindENS_8QualTypeE(i64 %26)
  switch i32 %27, label %44 [
    i32 0, label %28
    i32 1, label %31
    i32 2, label %39
  ]

28:                                               ; preds = %5
  call void @llvm.memcpy.p0.p0.i64(ptr align 8 %10, ptr align 8 %2, i64 136, i1 false)
  call void @llvm.memcpy.p0.p0.i64(ptr align 4 %11, ptr align 4 %6, i64 4, i1 false)
  %29 = getelementptr inbounds nuw %"class.clang::SourceLocation", ptr %11, i32 0, i32 0
  %30 = load i32, ptr %29, align 4
  call void @_ZN5clang7CodeGen15CodeGenFunction16EmitLoadOfLValueENS0_6LValueENS_14SourceLocationE(ptr dead_on_unwind writable sret(%"class.clang::CodeGen::RValue") align 8 %0, ptr noundef nonnull align 8 dereferenceable(6488) %18, ptr noundef byval(%"class.clang::CodeGen::LValue") align 8 %10, i32 %30)
  br label %45

31:                                               ; preds = %5
  call void @llvm.memcpy.p0.p0.i64(ptr align 8 %13, ptr align 8 %2, i64 136, i1 false)
  call void @llvm.memcpy.p0.p0.i64(ptr align 4 %14, ptr align 4 %6, i64 4, i1 false)
  %32 = getelementptr inbounds nuw %"class.clang::SourceLocation", ptr %14, i32 0, i32 0
  %33 = load i32, ptr %32, align 4
  %34 = call { ptr, ptr } @_ZN5clang7CodeGen15CodeGenFunction17EmitLoadOfComplexENS0_6LValueENS_14SourceLocationE(ptr noundef nonnull align 8 dereferenceable(6488) %18, ptr noundef byval(%"class.clang::CodeGen::LValue") align 8 %13, i32 %33)
  %35 = getelementptr inbounds nuw { ptr, ptr }, ptr %12, i32 0, i32 0
  %36 = extractvalue { ptr, ptr } %34, 0
  store ptr %36, ptr %35, align 8
  %37 = getelementptr inbounds nuw { ptr, ptr }, ptr %12, i32 0, i32 1
  %38 = extractvalue { ptr, ptr } %34, 1
  store ptr %38, ptr %37, align 8
  call void @_ZN5clang7CodeGen6RValue10getComplexERKSt4pairIPN4llvm5ValueES5_E(ptr dead_on_unwind writable sret(%"class.clang::CodeGen::RValue") align 8 %0, ptr noundef nonnull align 8 dereferenceable(16) %12)
  br label %45

39:                                               ; preds = %5
  call void @llvm.memcpy.p0.p0.i64(ptr align 8 %15, ptr align 8 %8, i64 8, i1 false)
  call void @llvm.memcpy.p0.p0.i64(ptr align 8 %16, ptr align 8 %3, i64 64, i1 false)
  %40 = getelementptr inbounds nuw %"class.clang::QualType", ptr %15, i32 0, i32 0
  %41 = getelementptr inbounds nuw %"class.llvm::PointerIntPair.44", ptr %40, i32 0, i32 0
  %42 = getelementptr inbounds nuw %"struct.llvm::detail::PunnedPointer.45", ptr %41, i32 0, i32 0
  %43 = load i64, ptr %42, align 8
  call void @_ZN5clang7CodeGen15CodeGenFunction20EmitAggFinalDestCopyENS_8QualTypeENS0_12AggValueSlotERKNS0_6LValueENS1_13ExprValueKindE(ptr noundef nonnull align 8 dereferenceable(6488) %18, i64 %43, ptr noundef byval(%"class.clang::CodeGen::AggValueSlot") align 8 %16, ptr noundef nonnull align 8 dereferenceable(136) %2, i32 noundef 1)
  call void @_ZNK5clang7CodeGen12AggValueSlot8asRValueEv(ptr dead_on_unwind writable sret(%"class.clang::CodeGen::RValue") align 8 %0, ptr noundef nonnull align 8 dereferenceable(57) %3)
  br label %45

44:                                               ; preds = %5
  unreachable

45:                                               ; preds = %39, %31, %28
  ret void
}