; Function Attrs: mustprogress nounwind uwtable
define dso_local void @_ZN5clang7CodeGen15CodeGenFunction18EmitLoadOfAnyValueENS0_6LValueENS0_12AggValueSlotENS_14SourceLocationE(ptr dead_on_unwind noalias nocapture writable sret(%"class.clang::CodeGen::RValue") align 8 %0, ptr noundef nonnull align 8 dereferenceable(6488) %1, ptr noundef byval(%"class.clang::CodeGen::LValue") align 8 %2, ptr nocapture noundef readonly byval(%"class.clang::CodeGen::AggValueSlot") align 8 %3, i32 %4) local_unnamed_addr #0 align 2 {
  %6 = getelementptr inbounds nuw i8, ptr %2, i64 64
  %.sroa.0.0.copyload.i = load i64, ptr %6, align 8
  %7 = tail call noundef i32 @_ZN5clang7CodeGen15CodeGenFunction17getEvaluationKindENS_8QualTypeE(i64 %.sroa.0.0.copyload.i) #22
  switch i32 %7, label %35 [
    i32 0, label %8
    i32 1, label %9
    i32 2, label %17
  ]

8:                                                ; preds = %5
  tail call void @_ZN5clang7CodeGen15CodeGenFunction16EmitLoadOfLValueENS0_6LValueENS_14SourceLocationE(ptr dead_on_unwind writable sret(%"class.clang::CodeGen::RValue") align 8 %0, ptr noundef nonnull align 8 dereferenceable(6488) %1, ptr noundef nonnull byval(%"class.clang::CodeGen::LValue") align 8 %2, i32 %4)
  br label %_ZNK5clang7CodeGen12AggValueSlot8asRValueEv.exit

9:                                                ; preds = %5
  %10 = tail call { ptr, ptr } @_ZN5clang7CodeGen15CodeGenFunction17EmitLoadOfComplexENS0_6LValueENS_14SourceLocationE(ptr noundef nonnull align 8 dereferenceable(6488) %1, ptr noundef nonnull byval(%"class.clang::CodeGen::LValue") align 8 %2, i32 %4) #22
  %11 = extractvalue { ptr, ptr } %10, 0
  %12 = extractvalue { ptr, ptr } %10, 1
  %13 = getelementptr inbounds nuw i8, ptr %0, i64 48
  %14 = load i8, ptr %13, align 8, !alias.scope !1086
  store ptr %11, ptr %0, align 8, !alias.scope !1086
  %.sroa.2.0..sroa_idx.i.i = getelementptr inbounds i8, ptr %0, i64 8
  store ptr %12, ptr %.sroa.2.0..sroa_idx.i.i, align 8, !alias.scope !1086
  %15 = and i8 %14, -8
  %16 = or disjoint i8 %15, 2
  store i8 %16, ptr %13, align 8, !alias.scope !1086
  br label %_ZNK5clang7CodeGen12AggValueSlot8asRValueEv.exit

17:                                               ; preds = %5
  call void @_ZN5clang7CodeGen15CodeGenFunction20EmitAggFinalDestCopyENS_8QualTypeENS0_12AggValueSlotERKNS0_6LValueENS1_13ExprValueKindE(ptr noundef nonnull align 8 dereferenceable(6488) %1, i64 %.sroa.0.0.copyload.i, ptr noundef nonnull byval(%"class.clang::CodeGen::AggValueSlot") align 8 %3, ptr noundef nonnull align 8 dereferenceable(136) %2, i32 noundef 1) #22
  call void @llvm.experimental.noalias.scope.decl(metadata !1091)
  %.0.copyload.i.i.i.i.i.i = load i64, ptr %3, align 8, !noalias !1091
  %18 = icmp ult i64 %.0.copyload.i.i.i.i.i.i, 8
  br i1 %18, label %19, label %24

19:                                               ; preds = %17
  %20 = getelementptr inbounds nuw i8, ptr %0, i64 48
  %21 = getelementptr inbounds i8, ptr %0, i64 8
  store i64 0, ptr %21, align 8, !alias.scope !1094
  %22 = load i8, ptr %20, align 8, !alias.scope !1094
  store ptr null, ptr %0, align 8, !alias.scope !1094
  %23 = and i8 %22, -8
  store i8 %23, ptr %20, align 8, !alias.scope !1094
  br label %_ZNK5clang7CodeGen12AggValueSlot8asRValueEv.exit

24:                                               ; preds = %17
  call void @llvm.memcpy.p0.p0.i64(ptr noundef nonnull align 8 dereferenceable(48) %0, ptr noundef nonnull align 8 dereferenceable(48) %3, i64 48, i1 false)
  %25 = getelementptr inbounds nuw i8, ptr %3, i64 48
  %26 = load i64, ptr %25, align 8, !noalias !1091
  %27 = getelementptr inbounds nuw i8, ptr %0, i64 48
  %28 = load i8, ptr %27, align 8, !alias.scope !1099
  %29 = and i8 %28, -8
  %30 = trunc i64 %26 to i8
  %31 = lshr i8 %30, 2
  %32 = and i8 %31, 1
  %33 = or disjoint i8 %29, %32
  %34 = or disjoint i8 %33, 4
  store i8 %34, ptr %27, align 8, !alias.scope !1099
  br label %_ZNK5clang7CodeGen12AggValueSlot8asRValueEv.exit

35:                                               ; preds = %5
  unreachable

_ZNK5clang7CodeGen12AggValueSlot8asRValueEv.exit: ; preds = %24, %19, %9, %8
  ret void
}